target datalayout = "e-m:e-p270:32:32-p271:32:32-p272:64:64-i64:64-i128:128-f80:128-n8:16:32:64-S128"
target triple = "x86_64-pc-linux-gnu"

%struct._spdu_dlt_mapping = type { ptr, i32, i32 }

@.str.306 = private unnamed_addr constant [44 x i8] c"ECU ID can only be up to 4 characters long!\00", align 1

; Function Attrs: null_pointer_is_valid sspstrong uwtable
define internal zeroext i1 @update_spdu_dlt_mapping(ptr noundef %0, ptr noundef %1) #0 {
  %3 = alloca i1, align 1
  %4 = alloca ptr, align 8
  %5 = alloca ptr, align 8
  %6 = alloca ptr, align 8
  %7 = alloca i32, align 4
  store ptr %0, ptr %4, align 8
  store ptr %1, ptr %5, align 8
  call void @llvm.lifetime.start.p0(i64 8, ptr %6) #14
  %8 = load ptr, ptr %4, align 8
  store ptr %8, ptr %6, align 8
  %9 = load ptr, ptr %6, align 8
  %10 = getelementptr inbounds nuw %struct._spdu_dlt_mapping, ptr %9, i32 0, i32 0
  %11 = load ptr, ptr %10, align 8
  %12 = icmp ne ptr %11, null
  br i1 %12, label %13, label %22

13:                                               ; preds = %2
  %14 = load ptr, ptr %6, align 8
  %15 = getelementptr inbounds nuw %struct._spdu_dlt_mapping, ptr %14, i32 0, i32 0
  %16 = load ptr, ptr %15, align 8
  %17 = call i64 @strlen(ptr noundef %16) #15
  %18 = icmp ugt i64 %17, 4
  br i1 %18, label %19, label %22

19:                                               ; preds = %13
  %20 = call noalias ptr (ptr, ptr, ...) @wmem_strdup_printf(ptr noundef null, ptr noundef @.str.306)
  %21 = load ptr, ptr %5, align 8
  store ptr %20, ptr %21, align 8
  store i1 false, ptr %3, align 1
  store i32 1, ptr %7, align 4
  br label %23

22:                                               ; preds = %13, %2
  store i1 true, ptr %3, align 1
  store i32 1, ptr %7, align 4
  br label %23

23:                                               ; preds = %22, %19
  call void @llvm.lifetime.end.p0(i64 8, ptr %6) #14
  %24 = load i1, ptr %3, align 1
  ret i1 %24
}