; Function Attrs: null_pointer_is_valid sspstrong uwtable
define internal noundef zeroext i1 @update_spdu_dlt_mapping(ptr noundef readonly captures(none) %0, ptr noundef writeonly captures(none) %1) #0 {
  %3 = load ptr, ptr %0, align 8
  %.not = icmp eq ptr %3, null
  br i1 %.not, label %9, label %4

4:                                                ; preds = %2
  %5 = tail call i64 @strlen(ptr noundef nonnull dereferenceable(1) %3) #15
  %6 = icmp ugt i64 %5, 4
  br i1 %6, label %7, label %9

7:                                                ; preds = %4
  %8 = tail call noalias ptr (ptr, ptr, ...) @wmem_strdup_printf(ptr noundef null, ptr noundef nonnull @.str.306)
  store ptr %8, ptr %1, align 8
  br label %9

9:                                                ; preds = %2, %4, %7
  %.0 = phi i1 [ false, %7 ], [ true, %4 ], [ true, %2 ]
  ret i1 %.0
}